; Function Attrs: mustprogress nounwind uwtable
define internal fastcc void @_ZNSt7__cxx114listIN9grpc_core12_GLOBAL__N_15RlsLb10RequestKeyESaIS4_EED2Ev(ptr noundef nonnull readonly align 8 dereferenceable(24) %this) unnamed_addr #11 align 2 personality ptr @__gxx_personality_v0 {
entry:
  %0 = load ptr, ptr %this, align 8
  %cmp.not4.i.i = icmp eq ptr %0, %this
  br i1 %cmp.not4.i.i, label %_ZNSt7__cxx1110_List_baseIN9grpc_core12_GLOBAL__N_15RlsLb10RequestKeyESaIS4_EED2Ev.exit, label %while.body.i.i

while.body.i.i:                                   ; preds = %entry, %_ZNSt16allocator_traitsISaISt10_List_nodeIN9grpc_core12_GLOBAL__N_15RlsLb10RequestKeyEEEE7destroyIS4_EEvRS6_PT_.exit.i.i
  %__cur.05.i.i = phi ptr [ %1, %_ZNSt16allocator_traitsISaISt10_List_nodeIN9grpc_core12_GLOBAL__N_15RlsLb10RequestKeyEEEE7destroyIS4_EEvRS6_PT_.exit.i.i ], [ %0, %entry ]
  %1 = load ptr, ptr %__cur.05.i.i, align 8
  %_M_storage.i.i.i = getelementptr inbounds i8, ptr %__cur.05.i.i, i64 16
  %_M_parent.i.i.i.i.i.i.i.i.i = getelementptr inbounds i8, ptr %__cur.05.i.i, i64 32
  %2 = load ptr, ptr %_M_parent.i.i.i.i.i.i.i.i.i, align 8
  invoke void @_ZNSt8_Rb_treeINSt7__cxx1112basic_stringIcSt11char_traitsIcESaIcEEESt4pairIKS5_S5_ESt10_Select1stIS8_ESt4lessIS5_ESaIS8_EE8_M_eraseEPSt13_Rb_tree_nodeIS8_E(ptr noundef nonnull align 8 dereferenceable(48) %_M_storage.i.i.i, ptr noundef %2)
          to label %_ZNSt16allocator_traitsISaISt10_List_nodeIN9grpc_core12_GLOBAL__N_15RlsLb10RequestKeyEEEE7destroyIS4_EEvRS6_PT_.exit.i.i unwind label %terminate.lpad.i.i.i.i.i.i.i

terminate.lpad.i.i.i.i.i.i.i:                     ; preds = %while.body.i.i
  %3 = landingpad { ptr, i32 }
          catch ptr null
  %4 = extractvalue { ptr, i32 } %3, 0
  tail call void @__clang_call_terminate(ptr %4) #34
  unreachable

_ZNSt16allocator_traitsISaISt10_List_nodeIN9grpc_core12_GLOBAL__N_15RlsLb10RequestKeyEEEE7destroyIS4_EEvRS6_PT_.exit.i.i: ; preds = %while.body.i.i
  tail call void @_ZdlPv(ptr noundef nonnull %__cur.05.i.i) #33
  %cmp.not.i.i = icmp eq ptr %1, %this
  br i1 %cmp.not.i.i, label %_ZNSt7__cxx1110_List_baseIN9grpc_core12_GLOBAL__N_15RlsLb10RequestKeyESaIS4_EED2Ev.exit, label %while.body.i.i, !llvm.loop !89

_ZNSt7__cxx1110_List_baseIN9grpc_core12_GLOBAL__N_15RlsLb10RequestKeyESaIS4_EED2Ev.exit: ; preds = %_ZNSt16allocator_traitsISaISt10_List_nodeIN9grpc_core12_GLOBAL__N_15RlsLb10RequestKeyEEEE7destroyIS4_EEvRS6_PT_.exit.i.i, %entry
  ret void
}